; Function Attrs: mustprogress nounwind uwtable
define dso_local noundef nonnull ptr @_ZN4llvm22createFastDAGSchedulerEPNS_16SelectionDAGISelENS_15CodeGenOptLevelE(ptr nocapture noundef readonly %0, i32 %1) #0 {
  %3 = tail call noalias noundef nonnull dereferenceable(832) ptr @_Znwm(i64 noundef 832) #17
  %4 = getelementptr inbounds nuw i8, ptr %0, i64 40
  %5 = load ptr, ptr %4, align 8
  tail call void @_ZN4llvm18ScheduleDAGSDNodesC2ERNS_15MachineFunctionE(ptr noundef nonnull align 8 dereferenceable(632) %3, ptr noundef nonnull align 8 dereferenceable(1041) %5) #18
  store ptr getelementptr inbounds inrange(-16, 120) (i8, ptr @_ZTVN12_GLOBAL__N_115ScheduleDAGFastE, i64 16), ptr %3, align 8
  %6 = getelementptr inbounds nuw i8, ptr %3, i64 632
  %7 = getelementptr inbounds i8, ptr %3, i64 648
  tail call void @_ZN4llvm15SmallVectorBaseIjEC2EPvm(ptr noundef nonnull align 8 dereferenceable(16) %6, ptr noundef nonnull %7, i64 noundef 16) #18
  %8 = getelementptr inbounds nuw i8, ptr %3, i64 776
  store i32 0, ptr %8, align 8
  %9 = getelementptr inbounds nuw i8, ptr %3, i64 784
  tail call void @llvm.memset.p0.i64(ptr noundef nonnull align 8 dereferenceable(48) %9, i8 0, i64 48, i1 false)
  ret ptr %3
}